target datalayout = "e-m:e-p270:32:32-p271:32:32-p272:64:64-i64:64-i128:128-f80:128-n8:16:32:64-S128"
target triple = "x86_64-pc-linux-gnu"

%"class.clang::TemplateArgument" = type { %union.anon.1728 }
%union.anon.1728 = type { %"struct.clang::TemplateArgument::DA" }
%"struct.clang::TemplateArgument::DA" = type { i32, ptr, ptr }
%"class.clang::QualType" = type { %"class.llvm::PointerIntPair.800" }
%"class.llvm::PointerIntPair.800" = type { %"struct.llvm::detail::PunnedPointer.801" }
%"struct.llvm::detail::PunnedPointer.801" = type { [8 x i8] }
%"class.llvm::FoldingSetBase::Node" = type { ptr }
%"class.llvm::ArrayRef.1727" = type { ptr, i64 }
%"class.clang::Type" = type { %"class.clang::ExtQualsTypeCommonBase", %union.anon.1670, [8 x i8] }
%"class.clang::ExtQualsTypeCommonBase" = type { ptr, %"class.clang::QualType" }
%union.anon.1670 = type { %"class.clang::Type::FunctionTypeBitfields" }
%"class.clang::Type::FunctionTypeBitfields" = type { i64 }
%"class.clang::Type.base" = type { %"class.clang::ExtQualsTypeCommonBase", %union.anon.1670 }
%"class.clang::DeducedType" = type { %"class.clang::Type.base", %"class.clang::QualType" }
%"class.clang::AutoType" = type { %"class.clang::DeducedType", %"class.llvm::FoldingSetBase::Node", ptr }
%"class.clang::Type::AutoTypeBitfields" = type { i32, i32 }

; Function Attrs: mustprogress nounwind uwtable
define internal noundef zeroext i1 @_ZN5clang19RecursiveASTVisitorIN12_GLOBAL__N_121PCHContainerGenerator16DebugTypeVisitorEE9VisitTypeEPNS_4TypeE(ptr noundef nonnull align 1 dereferenceable(1) %0, ptr noundef %1) #0 align 2 {
  %3 = alloca ptr, align 8
  %4 = alloca ptr, align 8
  store ptr %0, ptr %3, align 8
  store ptr %1, ptr %4, align 8
  ret i1 true
}

; Function Attrs: mustprogress nounwind uwtable
define internal noundef zeroext i1 @_ZN5clang19RecursiveASTVisitorIN12_GLOBAL__N_121PCHContainerGenerator16DebugTypeVisitorEE16VisitDeducedTypeEPNS_11DeducedTypeE(ptr noundef nonnull align 1 dereferenceable(1) %0, ptr noundef %1) #0 align 2 {
  %3 = alloca ptr, align 8
  %4 = alloca ptr, align 8
  store ptr %0, ptr %3, align 8
  store ptr %1, ptr %4, align 8
  ret i1 true
}

; Function Attrs: mustprogress nounwind uwtable
define internal noundef zeroext i1 @_ZN5clang19RecursiveASTVisitorIN12_GLOBAL__N_121PCHContainerGenerator16DebugTypeVisitorEE14WalkUpFromTypeEPNS_4TypeE(ptr noundef nonnull align 1 dereferenceable(1) %0, ptr noundef %1) #0 align 2 {
  %3 = alloca ptr, align 8
  %4 = alloca ptr, align 8
  store ptr %0, ptr %3, align 8
  store ptr %1, ptr %4, align 8
  %5 = load ptr, ptr %3, align 8
  %6 = call noundef nonnull align 8 dereferenceable(16) ptr @_ZN5clang19RecursiveASTVisitorIN12_GLOBAL__N_121PCHContainerGenerator16DebugTypeVisitorEE10getDerivedEv(ptr noundef nonnull align 1 dereferenceable(1) %5)
  %7 = load ptr, ptr %4, align 8
  %8 = call noundef zeroext i1 @_ZN5clang19RecursiveASTVisitorIN12_GLOBAL__N_121PCHContainerGenerator16DebugTypeVisitorEE9VisitTypeEPNS_4TypeE(ptr noundef nonnull align 1 dereferenceable(1) %6, ptr noundef %7)
  ret i1 %8
}

; Function Attrs: mustprogress nounwind uwtable
define linkonce_odr hidden noundef ptr @_ZNK4llvm8ArrayRefIN5clang16TemplateArgumentEE3endEv(ptr noundef nonnull align 8 dereferenceable(16) %0) #0 comdat align 2 {
  %2 = alloca ptr, align 8
  store ptr %0, ptr %2, align 8
  %3 = load ptr, ptr %2, align 8
  %4 = getelementptr inbounds nuw %"class.llvm::ArrayRef.1727", ptr %3, i32 0, i32 0
  %5 = load ptr, ptr %4, align 8
  %6 = getelementptr inbounds nuw %"class.llvm::ArrayRef.1727", ptr %3, i32 0, i32 1
  %7 = load i64, ptr %6, align 8
  %8 = getelementptr inbounds %"class.clang::TemplateArgument", ptr %5, i64 %7
  ret ptr %8
}

; Function Attrs: mustprogress nounwind uwtable
define linkonce_odr hidden noundef ptr @_ZNK4llvm8ArrayRefIN5clang16TemplateArgumentEE5beginEv(ptr noundef nonnull align 8 dereferenceable(16) %0) #0 comdat align 2 {
  %2 = alloca ptr, align 8
  store ptr %0, ptr %2, align 8
  %3 = load ptr, ptr %2, align 8
  %4 = getelementptr inbounds nuw %"class.llvm::ArrayRef.1727", ptr %3, i32 0, i32 0
  %5 = load ptr, ptr %4, align 8
  ret ptr %5
}

; Function Attrs: mustprogress nounwind uwtable
define linkonce_odr hidden void @_ZN4llvm8ArrayRefIN5clang16TemplateArgumentEEC2EPKS2_m(ptr noundef nonnull align 8 dereferenceable(16) %0, ptr noundef %1, i64 noundef %2) unnamed_addr #0 comdat align 2 {
  %4 = alloca ptr, align 8
  %5 = alloca ptr, align 8
  %6 = alloca i64, align 8
  store ptr %0, ptr %4, align 8
  store ptr %1, ptr %5, align 8
  store i64 %2, ptr %6, align 8
  %7 = load ptr, ptr %4, align 8
  %8 = getelementptr inbounds nuw %"class.llvm::ArrayRef.1727", ptr %7, i32 0, i32 0
  %9 = load ptr, ptr %5, align 8
  store ptr %9, ptr %8, align 8
  %10 = getelementptr inbounds nuw %"class.llvm::ArrayRef.1727", ptr %7, i32 0, i32 1
  %11 = load i64, ptr %6, align 8
  store i64 %11, ptr %10, align 8
  ret void
}

; Function Attrs: mustprogress nounwind uwtable
define internal noundef zeroext i1 @_ZN5clang19RecursiveASTVisitorIN12_GLOBAL__N_121PCHContainerGenerator16DebugTypeVisitorEE13VisitAutoTypeEPNS_8AutoTypeE(ptr noundef nonnull align 1 dereferenceable(1) %0, ptr noundef %1) #0 align 2 {
  %3 = alloca ptr, align 8
  %4 = alloca ptr, align 8
  store ptr %0, ptr %3, align 8
  store ptr %1, ptr %4, align 8
  ret i1 true
}

; Function Attrs: mustprogress nounwind uwtable
define internal noundef zeroext i1 @_ZN5clang19RecursiveASTVisitorIN12_GLOBAL__N_121PCHContainerGenerator16DebugTypeVisitorEE21WalkUpFromDeducedTypeEPNS_11DeducedTypeE(ptr noundef nonnull align 1 dereferenceable(1) %0, ptr noundef %1) #0 align 2 {
  %3 = alloca i1, align 1
  %4 = alloca ptr, align 8
  %5 = alloca ptr, align 8
  store ptr %0, ptr %4, align 8
  store ptr %1, ptr %5, align 8
  %6 = load ptr, ptr %4, align 8
  br label %7

7:                                                ; preds = %2
  %8 = call noundef nonnull align 8 dereferenceable(16) ptr @_ZN5clang19RecursiveASTVisitorIN12_GLOBAL__N_121PCHContainerGenerator16DebugTypeVisitorEE10getDerivedEv(ptr noundef nonnull align 1 dereferenceable(1) %6)
  %9 = load ptr, ptr %5, align 8
  %10 = call noundef zeroext i1 @_ZN5clang19RecursiveASTVisitorIN12_GLOBAL__N_121PCHContainerGenerator16DebugTypeVisitorEE14WalkUpFromTypeEPNS_4TypeE(ptr noundef nonnull align 1 dereferenceable(1) %8, ptr noundef %9)
  br i1 %10, label %12, label %11

11:                                               ; preds = %7
  store i1 false, ptr %3, align 1
  br label %21

12:                                               ; preds = %7
  br label %13

13:                                               ; preds = %12
  br label %14

14:                                               ; preds = %13
  %15 = call noundef nonnull align 8 dereferenceable(16) ptr @_ZN5clang19RecursiveASTVisitorIN12_GLOBAL__N_121PCHContainerGenerator16DebugTypeVisitorEE10getDerivedEv(ptr noundef nonnull align 1 dereferenceable(1) %6)
  %16 = load ptr, ptr %5, align 8
  %17 = call noundef zeroext i1 @_ZN5clang19RecursiveASTVisitorIN12_GLOBAL__N_121PCHContainerGenerator16DebugTypeVisitorEE16VisitDeducedTypeEPNS_11DeducedTypeE(ptr noundef nonnull align 1 dereferenceable(1) %15, ptr noundef %16)
  br i1 %17, label %19, label %18

18:                                               ; preds = %14
  store i1 false, ptr %3, align 1
  br label %21

19:                                               ; preds = %14
  br label %20

20:                                               ; preds = %19
  store i1 true, ptr %3, align 1
  br label %21

21:                                               ; preds = %20, %18, %11
  %22 = load i1, ptr %3, align 1
  ret i1 %22
}

; Function Attrs: mustprogress nounwind uwtable
define internal noundef zeroext i1 @_ZN5clang19RecursiveASTVisitorIN12_GLOBAL__N_121PCHContainerGenerator16DebugTypeVisitorEE25TraverseTemplateArgumentsEN4llvm8ArrayRefINS_16TemplateArgumentEEE(ptr noundef nonnull align 1 dereferenceable(1) %0, ptr %1, i64 %2) #0 align 2 {
  %4 = alloca i1, align 1
  %5 = alloca %"class.llvm::ArrayRef.1727", align 8
  %6 = alloca ptr, align 8
  %7 = alloca ptr, align 8
  %8 = alloca ptr, align 8
  %9 = alloca ptr, align 8
  %10 = alloca ptr, align 8
  %11 = getelementptr inbounds nuw { ptr, i64 }, ptr %5, i32 0, i32 0
  store ptr %1, ptr %11, align 8
  %12 = getelementptr inbounds nuw { ptr, i64 }, ptr %5, i32 0, i32 1
  store i64 %2, ptr %12, align 8
  store ptr %0, ptr %6, align 8
  %13 = load ptr, ptr %6, align 8
  store ptr %5, ptr %7, align 8
  %14 = load ptr, ptr %7, align 8
  %15 = call noundef ptr @_ZNK4llvm8ArrayRefIN5clang16TemplateArgumentEE5beginEv(ptr noundef nonnull align 8 dereferenceable(16) %14)
  store ptr %15, ptr %8, align 8
  %16 = load ptr, ptr %7, align 8
  %17 = call noundef ptr @_ZNK4llvm8ArrayRefIN5clang16TemplateArgumentEE3endEv(ptr noundef nonnull align 8 dereferenceable(16) %16)
  store ptr %17, ptr %9, align 8
  br label %18

18:                                               ; preds = %31, %3
  %19 = load ptr, ptr %8, align 8
  %20 = load ptr, ptr %9, align 8
  %21 = icmp ne ptr %19, %20
  br i1 %21, label %22, label %34

22:                                               ; preds = %18
  %23 = load ptr, ptr %8, align 8
  store ptr %23, ptr %10, align 8
  br label %24

24:                                               ; preds = %22
  %25 = call noundef nonnull align 8 dereferenceable(16) ptr @_ZN5clang19RecursiveASTVisitorIN12_GLOBAL__N_121PCHContainerGenerator16DebugTypeVisitorEE10getDerivedEv(ptr noundef nonnull align 1 dereferenceable(1) %13)
  %26 = load ptr, ptr %10, align 8
  %27 = call noundef zeroext i1 @_ZN5clang19RecursiveASTVisitorIN12_GLOBAL__N_121PCHContainerGenerator16DebugTypeVisitorEE24TraverseTemplateArgumentERKNS_16TemplateArgumentE(ptr noundef nonnull align 1 dereferenceable(1) %25, ptr noundef nonnull align 8 dereferenceable(24) %26)
  br i1 %27, label %29, label %28

28:                                               ; preds = %24
  store i1 false, ptr %4, align 1
  br label %35

29:                                               ; preds = %24
  br label %30

30:                                               ; preds = %29
  br label %31

31:                                               ; preds = %30
  %32 = load ptr, ptr %8, align 8
  %33 = getelementptr inbounds %"class.clang::TemplateArgument", ptr %32, i32 1
  store ptr %33, ptr %8, align 8
  br label %18

34:                                               ; preds = %18
  store i1 true, ptr %4, align 1
  br label %35

35:                                               ; preds = %34, %28
  %36 = load i1, ptr %4, align 1
  ret i1 %36
}

; Function Attrs: mustprogress nounwind uwtable
define linkonce_odr hidden { ptr, i64 } @_ZNK5clang8AutoType26getTypeConstraintArgumentsEv(ptr noundef nonnull align 16 dereferenceable(48) %0) #0 comdat align 2 {
  %2 = alloca %"class.llvm::ArrayRef.1727", align 8
  %3 = alloca ptr, align 8
  store ptr %0, ptr %3, align 8
  %4 = load ptr, ptr %3, align 8
  %5 = getelementptr inbounds %"class.clang::AutoType", ptr %4, i64 1
  %6 = getelementptr inbounds nuw %"class.clang::Type", ptr %4, i32 0, i32 1
  %7 = getelementptr inbounds nuw %"class.clang::Type::AutoTypeBitfields", ptr %6, i32 0, i32 1
  %8 = load i32, ptr %7, align 4
  %9 = zext i32 %8 to i64
  call void @_ZN4llvm8ArrayRefIN5clang16TemplateArgumentEEC2EPKS2_m(ptr noundef nonnull align 8 dereferenceable(16) %2, ptr noundef %5, i64 noundef %9)
  %10 = load { ptr, i64 }, ptr %2, align 8
  ret { ptr, i64 } %10
}

; Function Attrs: mustprogress nounwind uwtable
define linkonce_odr hidden noundef zeroext i1 @_ZNK5clang8AutoType13isConstrainedEv(ptr noundef nonnull align 16 dereferenceable(48) %0) #0 comdat align 2 {
  %2 = alloca ptr, align 8
  store ptr %0, ptr %2, align 8
  %3 = load ptr, ptr %2, align 8
  %4 = getelementptr inbounds nuw %"class.clang::AutoType", ptr %3, i32 0, i32 2
  %5 = load ptr, ptr %4, align 8
  %6 = icmp ne ptr %5, null
  ret i1 %6
}

; Function Attrs: mustprogress nounwind uwtable
define linkonce_odr hidden i64 @_ZNK5clang11DeducedType14getDeducedTypeEv(ptr noundef nonnull align 16 dereferenceable(32) %0) #0 comdat align 2 {
  %2 = alloca %"class.clang::QualType", align 8
  %3 = alloca ptr, align 8
  store ptr %0, ptr %3, align 8
  %4 = load ptr, ptr %3, align 8
  %5 = getelementptr inbounds nuw %"class.clang::DeducedType", ptr %4, i32 0, i32 1
  call void @llvm.memcpy.p0.p0.i64(ptr align 8 %2, ptr align 8 %5, i64 8, i1 false)
  %6 = getelementptr inbounds nuw %"class.clang::QualType", ptr %2, i32 0, i32 0
  %7 = getelementptr inbounds nuw %"class.llvm::PointerIntPair.800", ptr %6, i32 0, i32 0
  %8 = getelementptr inbounds nuw %"struct.llvm::detail::PunnedPointer.801", ptr %7, i32 0, i32 0
  %9 = load i64, ptr %8, align 8
  ret i64 %9
}

; Function Attrs: mustprogress nounwind uwtable
define internal noundef zeroext i1 @_ZN5clang19RecursiveASTVisitorIN12_GLOBAL__N_121PCHContainerGenerator16DebugTypeVisitorEE18WalkUpFromAutoTypeEPNS_8AutoTypeE(ptr noundef nonnull align 1 dereferenceable(1) %0, ptr noundef %1) #0 align 2 {
  %3 = alloca i1, align 1
  %4 = alloca ptr, align 8
  %5 = alloca ptr, align 8
  store ptr %0, ptr %4, align 8
  store ptr %1, ptr %5, align 8
  %6 = load ptr, ptr %4, align 8
  br label %7

7:                                                ; preds = %2
  %8 = call noundef nonnull align 8 dereferenceable(16) ptr @_ZN5clang19RecursiveASTVisitorIN12_GLOBAL__N_121PCHContainerGenerator16DebugTypeVisitorEE10getDerivedEv(ptr noundef nonnull align 1 dereferenceable(1) %6)
  %9 = load ptr, ptr %5, align 8
  %10 = call noundef zeroext i1 @_ZN5clang19RecursiveASTVisitorIN12_GLOBAL__N_121PCHContainerGenerator16DebugTypeVisitorEE21WalkUpFromDeducedTypeEPNS_11DeducedTypeE(ptr noundef nonnull align 1 dereferenceable(1) %8, ptr noundef %9)
  br i1 %10, label %12, label %11

11:                                               ; preds = %7
  store i1 false, ptr %3, align 1
  br label %21

12:                                               ; preds = %7
  br label %13

13:                                               ; preds = %12
  br label %14

14:                                               ; preds = %13
  %15 = call noundef nonnull align 8 dereferenceable(16) ptr @_ZN5clang19RecursiveASTVisitorIN12_GLOBAL__N_121PCHContainerGenerator16DebugTypeVisitorEE10getDerivedEv(ptr noundef nonnull align 1 dereferenceable(1) %6)
  %16 = load ptr, ptr %5, align 8
  %17 = call noundef zeroext i1 @_ZN5clang19RecursiveASTVisitorIN12_GLOBAL__N_121PCHContainerGenerator16DebugTypeVisitorEE13VisitAutoTypeEPNS_8AutoTypeE(ptr noundef nonnull align 1 dereferenceable(1) %15, ptr noundef %16)
  br i1 %17, label %19, label %18

18:                                               ; preds = %14
  store i1 false, ptr %3, align 1
  br label %21

19:                                               ; preds = %14
  br label %20

20:                                               ; preds = %19
  store i1 true, ptr %3, align 1
  br label %21

21:                                               ; preds = %20, %18, %11
  %22 = load i1, ptr %3, align 1
  ret i1 %22
}

; Function Attrs: mustprogress nounwind uwtable
define internal noundef zeroext i1 @_ZNK5clang19RecursiveASTVisitorIN12_GLOBAL__N_121PCHContainerGenerator16DebugTypeVisitorEE23shouldTraversePostOrderEv(ptr noundef nonnull align 1 dereferenceable(1) %0) #0 align 2 {
  %2 = alloca ptr, align 8
  store ptr %0, ptr %2, align 8
  ret i1 false
}

; Function Attrs: mustprogress nounwind uwtable
define internal noundef nonnull align 8 dereferenceable(16) ptr @_ZN5clang19RecursiveASTVisitorIN12_GLOBAL__N_121PCHContainerGenerator16DebugTypeVisitorEE10getDerivedEv(ptr noundef nonnull align 1 dereferenceable(1) %0) #0 align 2 {
  %2 = alloca ptr, align 8
  store ptr %0, ptr %2, align 8
  %3 = load ptr, ptr %2, align 8
  ret ptr %3
}

; Function Attrs: mustprogress nounwind uwtable
define internal noundef zeroext i1 @_ZN5clang19RecursiveASTVisitorIN12_GLOBAL__N_121PCHContainerGenerator16DebugTypeVisitorEE16TraverseAutoTypeEPNS_8AutoTypeE(ptr noundef nonnull align 1 dereferenceable(1) %0, ptr noundef %1) #0 align 2 {
  %3 = alloca i1, align 1
  %4 = alloca ptr, align 8
  %5 = alloca ptr, align 8
  %6 = alloca %"class.clang::QualType", align 8
  %7 = alloca %"class.llvm::ArrayRef.1727", align 8
  store ptr %0, ptr %4, align 8
  store ptr %1, ptr %5, align 8
  %8 = load ptr, ptr %4, align 8
  %9 = call noundef nonnull align 8 dereferenceable(16) ptr @_ZN5clang19RecursiveASTVisitorIN12_GLOBAL__N_121PCHContainerGenerator16DebugTypeVisitorEE10getDerivedEv(ptr noundef nonnull align 1 dereferenceable(1) %8)
  %10 = call noundef zeroext i1 @_ZNK5clang19RecursiveASTVisitorIN12_GLOBAL__N_121PCHContainerGenerator16DebugTypeVisitorEE23shouldTraversePostOrderEv(ptr noundef nonnull align 1 dereferenceable(1) %9)
  br i1 %10, label %19, label %11

11:                                               ; preds = %2
  br label %12

12:                                               ; preds = %11
  %13 = call noundef nonnull align 8 dereferenceable(16) ptr @_ZN5clang19RecursiveASTVisitorIN12_GLOBAL__N_121PCHContainerGenerator16DebugTypeVisitorEE10getDerivedEv(ptr noundef nonnull align 1 dereferenceable(1) %8)
  %14 = load ptr, ptr %5, align 8
  %15 = call noundef zeroext i1 @_ZN5clang19RecursiveASTVisitorIN12_GLOBAL__N_121PCHContainerGenerator16DebugTypeVisitorEE18WalkUpFromAutoTypeEPNS_8AutoTypeE(ptr noundef nonnull align 1 dereferenceable(1) %13, ptr noundef %14)
  br i1 %15, label %17, label %16

16:                                               ; preds = %12
  store i1 false, ptr %3, align 1
  br label %66

17:                                               ; preds = %12
  br label %18

18:                                               ; preds = %17
  br label %19

19:                                               ; preds = %18, %2
  br label %20

20:                                               ; preds = %19
  %21 = call noundef nonnull align 8 dereferenceable(16) ptr @_ZN5clang19RecursiveASTVisitorIN12_GLOBAL__N_121PCHContainerGenerator16DebugTypeVisitorEE10getDerivedEv(ptr noundef nonnull align 1 dereferenceable(1) %8)
  %22 = load ptr, ptr %5, align 8
  %23 = call i64 @_ZNK5clang11DeducedType14getDeducedTypeEv(ptr noundef nonnull align 16 dereferenceable(32) %22)
  %24 = getelementptr inbounds nuw %"class.clang::QualType", ptr %6, i32 0, i32 0
  %25 = getelementptr inbounds nuw %"class.llvm::PointerIntPair.800", ptr %24, i32 0, i32 0
  %26 = getelementptr inbounds nuw %"struct.llvm::detail::PunnedPointer.801", ptr %25, i32 0, i32 0
  store i64 %23, ptr %26, align 8
  %27 = getelementptr inbounds nuw %"class.clang::QualType", ptr %6, i32 0, i32 0
  %28 = getelementptr inbounds nuw %"class.llvm::PointerIntPair.800", ptr %27, i32 0, i32 0
  %29 = getelementptr inbounds nuw %"struct.llvm::detail::PunnedPointer.801", ptr %28, i32 0, i32 0
  %30 = load i64, ptr %29, align 8
  %31 = call noundef zeroext i1 @_ZN5clang19RecursiveASTVisitorIN12_GLOBAL__N_121PCHContainerGenerator16DebugTypeVisitorEE12TraverseTypeENS_8QualTypeE(ptr noundef nonnull align 1 dereferenceable(1) %21, i64 %30)
  br i1 %31, label %33, label %32

32:                                               ; preds = %20
  store i1 false, ptr %3, align 1
  br label %66

33:                                               ; preds = %20
  br label %34

34:                                               ; preds = %33
  %35 = load ptr, ptr %5, align 8
  %36 = call noundef zeroext i1 @_ZNK5clang8AutoType13isConstrainedEv(ptr noundef nonnull align 16 dereferenceable(48) %35)
  br i1 %36, label %37, label %54

37:                                               ; preds = %34
  br label %38

38:                                               ; preds = %37
  %39 = call noundef nonnull align 8 dereferenceable(16) ptr @_ZN5clang19RecursiveASTVisitorIN12_GLOBAL__N_121PCHContainerGenerator16DebugTypeVisitorEE10getDerivedEv(ptr noundef nonnull align 1 dereferenceable(1) %8)
  %40 = load ptr, ptr %5, align 8
  %41 = call { ptr, i64 } @_ZNK5clang8AutoType26getTypeConstraintArgumentsEv(ptr noundef nonnull align 16 dereferenceable(48) %40)
  %42 = getelementptr inbounds nuw { ptr, i64 }, ptr %7, i32 0, i32 0
  %43 = extractvalue { ptr, i64 } %41, 0
  store ptr %43, ptr %42, align 8
  %44 = getelementptr inbounds nuw { ptr, i64 }, ptr %7, i32 0, i32 1
  %45 = extractvalue { ptr, i64 } %41, 1
  store i64 %45, ptr %44, align 8
  %46 = getelementptr inbounds nuw { ptr, i64 }, ptr %7, i32 0, i32 0
  %47 = load ptr, ptr %46, align 8
  %48 = getelementptr inbounds nuw { ptr, i64 }, ptr %7, i32 0, i32 1
  %49 = load i64, ptr %48, align 8
  %50 = call noundef zeroext i1 @_ZN5clang19RecursiveASTVisitorIN12_GLOBAL__N_121PCHContainerGenerator16DebugTypeVisitorEE25TraverseTemplateArgumentsEN4llvm8ArrayRefINS_16TemplateArgumentEEE(ptr noundef nonnull align 1 dereferenceable(1) %39, ptr %47, i64 %49)
  br i1 %50, label %52, label %51

51:                                               ; preds = %38
  store i1 false, ptr %3, align 1
  br label %66

52:                                               ; preds = %38
  br label %53

53:                                               ; preds = %52
  br label %54

54:                                               ; preds = %53, %34
  %55 = call noundef nonnull align 8 dereferenceable(16) ptr @_ZN5clang19RecursiveASTVisitorIN12_GLOBAL__N_121PCHContainerGenerator16DebugTypeVisitorEE10getDerivedEv(ptr noundef nonnull align 1 dereferenceable(1) %8)
  %56 = call noundef zeroext i1 @_ZNK5clang19RecursiveASTVisitorIN12_GLOBAL__N_121PCHContainerGenerator16DebugTypeVisitorEE23shouldTraversePostOrderEv(ptr noundef nonnull align 1 dereferenceable(1) %55)
  br i1 %56, label %57, label %65

57:                                               ; preds = %54
  br label %58

58:                                               ; preds = %57
  %59 = call noundef nonnull align 8 dereferenceable(16) ptr @_ZN5clang19RecursiveASTVisitorIN12_GLOBAL__N_121PCHContainerGenerator16DebugTypeVisitorEE10getDerivedEv(ptr noundef nonnull align 1 dereferenceable(1) %8)
  %60 = load ptr, ptr %5, align 8
  %61 = call noundef zeroext i1 @_ZN5clang19RecursiveASTVisitorIN12_GLOBAL__N_121PCHContainerGenerator16DebugTypeVisitorEE18WalkUpFromAutoTypeEPNS_8AutoTypeE(ptr noundef nonnull align 1 dereferenceable(1) %59, ptr noundef %60)
  br i1 %61, label %63, label %62

62:                                               ; preds = %58
  store i1 false, ptr %3, align 1
  br label %66

63:                                               ; preds = %58
  br label %64

64:                                               ; preds = %63
  br label %65

65:                                               ; preds = %64, %54
  store i1 true, ptr %3, align 1
  br label %66

66:                                               ; preds = %65, %62, %51, %32, %16
  %67 = load i1, ptr %3, align 1
  ret i1 %67
}